; Function Attrs: nounwind uwtable
define ptr @Gia_ManDupFlip(ptr noundef readonly captures(none) %0, ptr noundef readonly captures(none) %1) local_unnamed_addr #1 {
  %3 = getelementptr i8, ptr %0, i64 24
  %.val47 = load i32, ptr %3, align 8
  %4 = tail call ptr @Gia_ManStart(i32 noundef %.val47) #29
  %5 = load ptr, ptr %0, align 8
  %.not.i = icmp eq ptr %5, null
  br i1 %.not.i, label %Abc_UtilStrsav.exit, label %6

6:                                                ; preds = %2
  %7 = tail call i64 @strlen(ptr noundef nonnull readonly dereferenceable(1) %5) #30
  %8 = add i64 %7, 1
  %9 = tail call noalias ptr @malloc(i64 noundef %8) #27
  %10 = tail call ptr @strcpy(ptr noundef nonnull dereferenceable(1) %9, ptr noundef nonnull readonly dereferenceable(1) %5) #29
  br label %Abc_UtilStrsav.exit

Abc_UtilStrsav.exit:                              ; preds = %2, %6
  %11 = phi ptr [ %9, %6 ], [ null, %2 ]
  store ptr %11, ptr %4, align 8
  %12 = getelementptr inbounds nuw i8, ptr %0, i64 8
  %13 = load ptr, ptr %12, align 8
  %.not.i65 = icmp eq ptr %13, null
  br i1 %.not.i65, label %Abc_UtilStrsav.exit66, label %14

14:                                               ; preds = %Abc_UtilStrsav.exit
  %15 = tail call i64 @strlen(ptr noundef nonnull readonly dereferenceable(1) %13) #30
  %16 = add i64 %15, 1
  %17 = tail call noalias ptr @malloc(i64 noundef %16) #27
  %18 = tail call ptr @strcpy(ptr noundef nonnull dereferenceable(1) %17, ptr noundef nonnull readonly dereferenceable(1) %13) #29
  br label %Abc_UtilStrsav.exit66

Abc_UtilStrsav.exit66:                            ; preds = %Abc_UtilStrsav.exit, %14
  %19 = phi ptr [ %17, %14 ], [ null, %Abc_UtilStrsav.exit ]
  %20 = getelementptr inbounds nuw i8, ptr %4, i64 8
  store ptr %19, ptr %20, align 8
  %21 = getelementptr i8, ptr %0, i64 32
  %.val50 = load ptr, ptr %21, align 8
  %22 = getelementptr inbounds nuw i8, ptr %.val50, i64 8
  store i32 0, ptr %22, align 4
  %23 = load i32, ptr %3, align 8
  %24 = icmp sgt i32 %23, 1
  br i1 %24, label %.lr.ph, label %.critedge

.lr.ph:                                           ; preds = %Abc_UtilStrsav.exit66
  %25 = getelementptr i8, ptr %0, i64 16
  %26 = getelementptr i8, ptr %0, i64 72
  %27 = getelementptr i8, ptr %0, i64 64
  br label %28

28:                                               ; preds = %.lr.ph, %100
  %indvars.iv = phi i64 [ 1, %.lr.ph ], [ %indvars.iv.next, %100 ]
  %.val = load ptr, ptr %21, align 8
  %29 = getelementptr inbounds nuw %struct.Gia_Obj_t_, ptr %.val, i64 %indvars.iv
  %.val64 = load i64, ptr %29, align 4
  %30 = and i64 %.val64, 2147483648
  %.not.i67 = icmp eq i64 %30, 0
  %31 = and i64 %.val64, 536870911
  %32 = icmp ne i64 %31, 536870911
  %narrow.i = and i1 %.not.i67, %32
  br i1 %narrow.i, label %33, label %52

33:                                               ; preds = %28
  %34 = sub nsw i64 0, %31
  %35 = getelementptr inbounds %struct.Gia_Obj_t_, ptr %29, i64 %34, i32 1
  %36 = load i32, ptr %35, align 4
  %37 = trunc i64 %.val64 to i32
  %38 = lshr i32 %37, 29
  %39 = and i32 %38, 1
  %40 = xor i32 %36, %39
  %41 = lshr i64 %.val64, 32
  %42 = and i64 %41, 536870911
  %43 = sub nsw i64 0, %42
  %44 = getelementptr inbounds %struct.Gia_Obj_t_, ptr %29, i64 %43, i32 1
  %45 = load i32, ptr %44, align 4
  %46 = lshr i64 %.val64, 61
  %47 = trunc nuw nsw i64 %46 to i32
  %48 = and i32 %47, 1
  %49 = xor i32 %45, %48
  %50 = tail call fastcc i32 @Gia_ManAppendAnd(ptr noundef nonnull %4, i32 noundef %40, i32 noundef %49)
  %51 = getelementptr inbounds nuw i8, ptr %29, i64 8
  store i32 %50, ptr %51, align 4
  br label %100

52:                                               ; preds = %28
  %53 = and i64 %.val64, 2684354559
  %narrow.i68.not = icmp eq i64 %53, 2684354559
  br i1 %narrow.i68.not, label %54, label %72

54:                                               ; preds = %52
  %55 = tail call fastcc i32 @Gia_ManAppendCi(ptr noundef nonnull %4)
  %56 = getelementptr inbounds nuw i8, ptr %29, i64 8
  store i32 %55, ptr %56, align 4
  %.val60 = load i64, ptr %29, align 4
  %57 = lshr i64 %.val60, 32
  %58 = trunc nuw i64 %57 to i32
  %59 = and i32 %58, 536870911
  %.val54 = load i32, ptr %25, align 8
  %.val55 = load ptr, ptr %27, align 8
  %60 = getelementptr i8, ptr %.val55, i64 4
  %.val55.val = load i32, ptr %60, align 4
  %61 = sub nsw i32 %.val55.val, %.val54
  %.not46 = icmp slt i32 %59, %61
  br i1 %.not46, label %100, label %62

62:                                               ; preds = %54
  %63 = sub nsw i32 %59, %61
  %64 = ashr i32 %63, 5
  %65 = sext i32 %64 to i64
  %66 = getelementptr inbounds i32, ptr %1, i64 %65
  %67 = load i32, ptr %66, align 4
  %68 = and i32 %63, 31
  %69 = lshr i32 %67, %68
  %70 = and i32 %69, 1
  %71 = xor i32 %70, %55
  store i32 %71, ptr %56, align 4
  br label %100

72:                                               ; preds = %52
  %.not.i69 = icmp ne i64 %30, 0
  %narrow.i70 = and i1 %.not.i69, %32
  br i1 %narrow.i70, label %73, label %100

73:                                               ; preds = %72
  %74 = sub nsw i64 0, %31
  %75 = getelementptr inbounds %struct.Gia_Obj_t_, ptr %29, i64 %74, i32 1
  %76 = load i32, ptr %75, align 4
  %77 = trunc i64 %.val64 to i32
  %78 = lshr i32 %77, 29
  %79 = and i32 %78, 1
  %80 = xor i32 %76, %79
  %81 = getelementptr inbounds nuw i8, ptr %29, i64 8
  store i32 %80, ptr %81, align 4
  %82 = lshr i64 %.val64, 32
  %83 = trunc nuw i64 %82 to i32
  %84 = and i32 %83, 536870911
  %.val58 = load i32, ptr %25, align 8
  %.val59 = load ptr, ptr %26, align 8
  %85 = getelementptr i8, ptr %.val59, i64 4
  %.val59.val = load i32, ptr %85, align 4
  %86 = sub nsw i32 %.val59.val, %.val58
  %.not45 = icmp slt i32 %84, %86
  br i1 %.not45, label %97, label %87

87:                                               ; preds = %73
  %88 = sub nsw i32 %84, %86
  %89 = ashr i32 %88, 5
  %90 = sext i32 %89 to i64
  %91 = getelementptr inbounds i32, ptr %1, i64 %90
  %92 = load i32, ptr %91, align 4
  %93 = and i32 %88, 31
  %94 = lshr i32 %92, %93
  %95 = and i32 %94, 1
  %96 = xor i32 %95, %80
  store i32 %96, ptr %81, align 4
  br label %97

97:                                               ; preds = %87, %73
  %98 = phi i32 [ %96, %87 ], [ %80, %73 ]
  %99 = tail call fastcc i32 @Gia_ManAppendCo(ptr noundef nonnull %4, i32 noundef %98)
  store i32 %99, ptr %81, align 4
  br label %100

100:                                              ; preds = %33, %72, %97, %54, %62
  %indvars.iv.next = add nuw nsw i64 %indvars.iv, 1
  %101 = load i32, ptr %3, align 8
  %102 = sext i32 %101 to i64
  %103 = icmp slt i64 %indvars.iv.next, %102
  br i1 %103, label %28, label %.critedge, !llvm.loop !47

.critedge:                                        ; preds = %100, %Abc_UtilStrsav.exit66
  %104 = getelementptr i8, ptr %0, i64 16
  %.val51 = load i32, ptr %104, align 8
  tail call void @Gia_ManSetRegNum(ptr noundef nonnull %4, i32 noundef %.val51) #29
  ret ptr %4
}